; Function Attrs: mustprogress nounwind uwtable
define noundef zeroext i1 @_ZN10open_spiel4file11IsDirectoryERKNSt7__cxx1112basic_stringIcSt11char_traitsIcESaIcEEE(ptr noundef nonnull align 8 dereferenceable(32) %0) local_unnamed_addr #6 {
  %2 = alloca %struct.stat, align 8
  %3 = tail call noundef ptr @_ZNKSt7__cxx1112basic_stringIcSt11char_traitsIcESaIcEE5c_strEv(ptr noundef nonnull align 8 dereferenceable(32) %0) #17
  %4 = call i32 @stat(ptr noundef %3, ptr noundef nonnull %2) #17
  %5 = icmp eq i32 %4, 0
  %6 = getelementptr inbounds nuw i8, ptr %2, i64 24
  %7 = load i32, ptr %6, align 8
  %8 = and i32 %7, 16384
  %9 = icmp ne i32 %8, 0
  %10 = select i1 %5, i1 %9, i1 false
  ret i1 %10
}